target datalayout = "e-m:e-p270:32:32-p271:32:32-p272:64:64-i64:64-i128:128-f80:128-n8:16:32:64-S128"
target triple = "x86_64-pc-linux-gnu"

%struct.bignum_st = type { ptr, i32, i32, i32, i32 }

@.str = private unnamed_addr constant [31 x i8] c"../openssl/crypto/bn/bn_gf2m.c\00", align 1
@__func__.BN_GF2m_mod_sqr = private unnamed_addr constant [16 x i8] c"BN_GF2m_mod_sqr\00", align 1

; Function Attrs: nounwind uwtable
define i32 @BN_GF2m_poly2arr(ptr noundef %0, ptr noundef %1, i32 noundef %2) #0 {
  %4 = alloca i32, align 4
  %5 = alloca ptr, align 8
  %6 = alloca ptr, align 8
  %7 = alloca i32, align 4
  %8 = alloca i32, align 4
  %9 = alloca i32, align 4
  %10 = alloca i32, align 4
  %11 = alloca i64, align 8
  %12 = alloca i32, align 4
  store ptr %0, ptr %5, align 8, !tbaa !3
  store ptr %1, ptr %6, align 8, !tbaa !19
  store i32 %2, ptr %7, align 4, !tbaa !12
  call void @llvm.lifetime.start.p0(i64 4, ptr %8) #3
  call void @llvm.lifetime.start.p0(i64 4, ptr %9) #3
  call void @llvm.lifetime.start.p0(i64 4, ptr %10) #3
  store i32 0, ptr %10, align 4, !tbaa !12
  call void @llvm.lifetime.start.p0(i64 8, ptr %11) #3
  %13 = load ptr, ptr %5, align 8, !tbaa !3
  %14 = call i32 @BN_is_odd(ptr noundef %13)
  %15 = icmp ne i32 %14, 0
  br i1 %15, label %17, label %16

16:                                               ; preds = %3
  store i32 0, ptr %4, align 4
  store i32 1, ptr %12, align 4
  br label %97

17:                                               ; preds = %3
  %18 = load ptr, ptr %5, align 8, !tbaa !3
  %19 = getelementptr inbounds nuw %struct.bignum_st, ptr %18, i32 0, i32 1
  %20 = load i32, ptr %19, align 8, !tbaa !8
  %21 = sub nsw i32 %20, 1
  store i32 %21, ptr %8, align 4, !tbaa !12
  br label %22

22:                                               ; preds = %73, %17
  %23 = load i32, ptr %8, align 4, !tbaa !12
  %24 = icmp sge i32 %23, 0
  br i1 %24, label %25, label %76

25:                                               ; preds = %22
  %26 = load ptr, ptr %5, align 8, !tbaa !3
  %27 = getelementptr inbounds nuw %struct.bignum_st, ptr %26, i32 0, i32 0
  %28 = load ptr, ptr %27, align 8, !tbaa !13
  %29 = load i32, ptr %8, align 4, !tbaa !12
  %30 = sext i32 %29 to i64
  %31 = getelementptr inbounds i64, ptr %28, i64 %30
  %32 = load i64, ptr %31, align 8, !tbaa !14
  %33 = icmp ne i64 %32, 0
  br i1 %33, label %35, label %34

34:                                               ; preds = %25
  br label %73

35:                                               ; preds = %25
  store i64 -9223372036854775808, ptr %11, align 8, !tbaa !14
  store i32 63, ptr %9, align 4, !tbaa !12
  br label %36

36:                                               ; preds = %69, %35
  %37 = load i32, ptr %9, align 4, !tbaa !12
  %38 = icmp sge i32 %37, 0
  br i1 %38, label %39, label %72

39:                                               ; preds = %36
  %40 = load ptr, ptr %5, align 8, !tbaa !3
  %41 = getelementptr inbounds nuw %struct.bignum_st, ptr %40, i32 0, i32 0
  %42 = load ptr, ptr %41, align 8, !tbaa !13
  %43 = load i32, ptr %8, align 4, !tbaa !12
  %44 = sext i32 %43 to i64
  %45 = getelementptr inbounds i64, ptr %42, i64 %44
  %46 = load i64, ptr %45, align 8, !tbaa !14
  %47 = load i64, ptr %11, align 8, !tbaa !14
  %48 = and i64 %46, %47
  %49 = icmp ne i64 %48, 0
  br i1 %49, label %50, label %66

50:                                               ; preds = %39
  %51 = load i32, ptr %10, align 4, !tbaa !12
  %52 = load i32, ptr %7, align 4, !tbaa !12
  %53 = icmp slt i32 %51, %52
  br i1 %53, label %54, label %63

54:                                               ; preds = %50
  %55 = load i32, ptr %8, align 4, !tbaa !12
  %56 = mul nsw i32 64, %55
  %57 = load i32, ptr %9, align 4, !tbaa !12
  %58 = add nsw i32 %56, %57
  %59 = load ptr, ptr %6, align 8, !tbaa !19
  %60 = load i32, ptr %10, align 4, !tbaa !12
  %61 = sext i32 %60 to i64
  %62 = getelementptr inbounds i32, ptr %59, i64 %61
  store i32 %58, ptr %62, align 4, !tbaa !12
  br label %63

63:                                               ; preds = %54, %50
  %64 = load i32, ptr %10, align 4, !tbaa !12
  %65 = add nsw i32 %64, 1
  store i32 %65, ptr %10, align 4, !tbaa !12
  br label %66

66:                                               ; preds = %63, %39
  %67 = load i64, ptr %11, align 8, !tbaa !14
  %68 = lshr i64 %67, 1
  store i64 %68, ptr %11, align 8, !tbaa !14
  br label %69

69:                                               ; preds = %66
  %70 = load i32, ptr %9, align 4, !tbaa !12
  %71 = add nsw i32 %70, -1
  store i32 %71, ptr %9, align 4, !tbaa !12
  br label %36, !llvm.loop !27

72:                                               ; preds = %36
  br label %73

73:                                               ; preds = %72, %34
  %74 = load i32, ptr %8, align 4, !tbaa !12
  %75 = add nsw i32 %74, -1
  store i32 %75, ptr %8, align 4, !tbaa !12
  br label %22, !llvm.loop !28

76:                                               ; preds = %22
  %77 = load i32, ptr %10, align 4, !tbaa !12
  %78 = icmp sgt i32 %77, 0
  br i1 %78, label %79, label %85

79:                                               ; preds = %76
  %80 = load ptr, ptr %6, align 8, !tbaa !19
  %81 = getelementptr inbounds i32, ptr %80, i64 0
  %82 = load i32, ptr %81, align 4, !tbaa !12
  %83 = icmp sgt i32 %82, 661
  br i1 %83, label %84, label %85

84:                                               ; preds = %79
  store i32 0, ptr %4, align 4
  store i32 1, ptr %12, align 4
  br label %97

85:                                               ; preds = %79, %76
  %86 = load i32, ptr %10, align 4, !tbaa !12
  %87 = load i32, ptr %7, align 4, !tbaa !12
  %88 = icmp slt i32 %86, %87
  br i1 %88, label %89, label %94

89:                                               ; preds = %85
  %90 = load ptr, ptr %6, align 8, !tbaa !19
  %91 = load i32, ptr %10, align 4, !tbaa !12
  %92 = sext i32 %91 to i64
  %93 = getelementptr inbounds i32, ptr %90, i64 %92
  store i32 -1, ptr %93, align 4, !tbaa !12
  br label %94

94:                                               ; preds = %89, %85
  %95 = load i32, ptr %10, align 4, !tbaa !12
  %96 = add nsw i32 %95, 1
  store i32 %96, ptr %4, align 4
  store i32 1, ptr %12, align 4
  br label %97

97:                                               ; preds = %94, %84, %16
  call void @llvm.lifetime.end.p0(i64 8, ptr %11) #3
  call void @llvm.lifetime.end.p0(i64 4, ptr %10) #3
  call void @llvm.lifetime.end.p0(i64 4, ptr %9) #3
  call void @llvm.lifetime.end.p0(i64 4, ptr %8) #3
  %98 = load i32, ptr %4, align 4
  ret i32 %98
}

; Function Attrs: nounwind uwtable
define i32 @BN_GF2m_mod_sqr(ptr noundef %0, ptr noundef %1, ptr noundef %2, ptr noundef %3) #0 {
  %5 = alloca i32, align 4
  %6 = alloca ptr, align 8
  %7 = alloca ptr, align 8
  %8 = alloca ptr, align 8
  %9 = alloca ptr, align 8
  %10 = alloca i32, align 4
  %11 = alloca i32, align 4
  %12 = alloca ptr, align 8
  %13 = alloca i32, align 4
  store ptr %0, ptr %6, align 8, !tbaa !3
  store ptr %1, ptr %7, align 8, !tbaa !3
  store ptr %2, ptr %8, align 8, !tbaa !3
  store ptr %3, ptr %9, align 8, !tbaa !29
  call void @llvm.lifetime.start.p0(i64 4, ptr %10) #3
  store i32 0, ptr %10, align 4, !tbaa !12
  call void @llvm.lifetime.start.p0(i64 4, ptr %11) #3
  %14 = load ptr, ptr %8, align 8, !tbaa !3
  %15 = call i32 @BN_num_bits(ptr noundef %14)
  %16 = add nsw i32 %15, 1
  store i32 %16, ptr %11, align 4, !tbaa !12
  call void @llvm.lifetime.start.p0(i64 8, ptr %12) #3
  %17 = load i32, ptr %11, align 4, !tbaa !12
  %18 = sext i32 %17 to i64
  %19 = mul i64 4, %18
  %20 = call noalias ptr @CRYPTO_malloc(i64 noundef %19, ptr noundef @.str, i32 noundef 537)
  store ptr %20, ptr %12, align 8, !tbaa !19
  %21 = load ptr, ptr %12, align 8, !tbaa !19
  %22 = icmp eq ptr %21, null
  br i1 %22, label %23, label %24

23:                                               ; preds = %4
  store i32 0, ptr %5, align 4
  store i32 1, ptr %13, align 4
  br label %45

24:                                               ; preds = %4
  %25 = load ptr, ptr %8, align 8, !tbaa !3
  %26 = load ptr, ptr %12, align 8, !tbaa !19
  %27 = load i32, ptr %11, align 4, !tbaa !12
  %28 = call i32 @BN_GF2m_poly2arr(ptr noundef %25, ptr noundef %26, i32 noundef %27)
  store i32 %28, ptr %10, align 4, !tbaa !12
  %29 = load i32, ptr %10, align 4, !tbaa !12
  %30 = icmp ne i32 %29, 0
  br i1 %30, label %31, label %35

31:                                               ; preds = %24
  %32 = load i32, ptr %10, align 4, !tbaa !12
  %33 = load i32, ptr %11, align 4, !tbaa !12
  %34 = icmp sgt i32 %32, %33
  br i1 %34, label %35, label %36

35:                                               ; preds = %31, %24
  call void @ERR_new()
  call void @ERR_set_debug(ptr noundef @.str, i32 noundef 542, ptr noundef @__func__.BN_GF2m_mod_sqr)
  call void (i32, i32, ptr, ...) @ERR_set_error(i32 noundef 3, i32 noundef 106, ptr noundef null)
  br label %42

36:                                               ; preds = %31
  %37 = load ptr, ptr %6, align 8, !tbaa !3
  %38 = load ptr, ptr %7, align 8, !tbaa !3
  %39 = load ptr, ptr %12, align 8, !tbaa !19
  %40 = load ptr, ptr %9, align 8, !tbaa !29
  %41 = call i32 @BN_GF2m_mod_sqr_arr(ptr noundef %37, ptr noundef %38, ptr noundef %39, ptr noundef %40)
  store i32 %41, ptr %10, align 4, !tbaa !12
  br label %42

42:                                               ; preds = %36, %35
  %43 = load ptr, ptr %12, align 8, !tbaa !19
  call void @CRYPTO_free(ptr noundef %43, ptr noundef @.str, i32 noundef 548)
  %44 = load i32, ptr %10, align 4, !tbaa !12
  store i32 %44, ptr %5, align 4
  store i32 1, ptr %13, align 4
  br label %45

45:                                               ; preds = %42, %23
  call void @llvm.lifetime.end.p0(i64 8, ptr %12) #3
  call void @llvm.lifetime.end.p0(i64 4, ptr %11) #3
  call void @llvm.lifetime.end.p0(i64 4, ptr %10) #3
  %46 = load i32, ptr %5, align 4
  ret i32 %46
}