; Function Attrs: nounwind uwtable
define range(i32 -2147483646, -2147483648) i32 @BN_GF2m_mod_sqr(ptr noundef %0, ptr noundef readonly captures(none) %1, ptr noundef %2, ptr noundef %3) local_unnamed_addr #0 {
  %5 = tail call i32 @BN_num_bits(ptr noundef %2) #5
  %6 = add nsw i32 %5, 1
  %7 = sext i32 %6 to i64
  %8 = shl nsw i64 %7, 2
  %9 = tail call noalias ptr @CRYPTO_malloc(i64 noundef %8, ptr noundef nonnull @.str, i32 noundef 537) #5
  %10 = icmp eq ptr %9, null
  br i1 %10, label %47, label %11

11:                                               ; preds = %4
  %12 = tail call i32 @BN_is_odd(ptr noundef %2) #5
  %.not.i = icmp eq i32 %12, 0
  br i1 %.not.i, label %BN_GF2m_poly2arr.exit.thread, label %13

13:                                               ; preds = %11
  %14 = getelementptr inbounds nuw i8, ptr %2, i64 8
  %15 = load i32, ptr %14, align 8, !tbaa !3
  %16 = icmp sgt i32 %15, 0
  br i1 %16, label %.lr.ph.i, label %._crit_edge.thread.i

.lr.ph.i:                                         ; preds = %13
  %17 = load ptr, ptr %2, align 8, !tbaa !10
  %18 = zext nneg i32 %15 to i64
  br label %19

19:                                               ; preds = %.loopexit.i, %.lr.ph.i
  %indvars.iv.i = phi i64 [ %18, %.lr.ph.i ], [ %indvars.iv.next.i, %.loopexit.i ]
  %.02637.i = phi i32 [ 0, %.lr.ph.i ], [ %.1.i, %.loopexit.i ]
  %indvars.iv.next.i = add nsw i64 %indvars.iv.i, -1
  %20 = getelementptr inbounds nuw i64, ptr %17, i64 %indvars.iv.next.i
  %21 = load i64, ptr %20, align 8, !tbaa !11
  %.not30.i = icmp eq i64 %21, 0
  br i1 %.not30.i, label %.loopexit.i, label %.preheader.i

.preheader.i:                                     ; preds = %19
  %indvars.iv.next.tr.i = trunc i64 %indvars.iv.next.i to i32
  %22 = shl i32 %indvars.iv.next.tr.i, 6
  br label %23

23:                                               ; preds = %32, %.preheader.i
  %.035.i = phi i64 [ -9223372036854775808, %.preheader.i ], [ %33, %32 ]
  %.234.i = phi i32 [ %.02637.i, %.preheader.i ], [ %.3.i, %32 ]
  %.02732.i = phi i32 [ 63, %.preheader.i ], [ %34, %32 ]
  %24 = and i64 %.035.i, %21
  %.not31.i = icmp eq i64 %24, 0
  br i1 %.not31.i, label %32, label %25

25:                                               ; preds = %23
  %.not22 = icmp sgt i32 %.234.i, %5
  br i1 %.not22, label %30, label %26

26:                                               ; preds = %25
  %27 = add nuw nsw i32 %.02732.i, %22
  %28 = sext i32 %.234.i to i64
  %29 = getelementptr inbounds i32, ptr %9, i64 %28
  store i32 %27, ptr %29, align 4, !tbaa !16
  br label %30

30:                                               ; preds = %26, %25
  %31 = add nsw i32 %.234.i, 1
  br label %32

32:                                               ; preds = %30, %23
  %.3.i = phi i32 [ %31, %30 ], [ %.234.i, %23 ]
  %33 = lshr i64 %.035.i, 1
  %34 = add nsw i32 %.02732.i, -1
  %.not40.i = icmp eq i32 %.02732.i, 0
  br i1 %.not40.i, label %.loopexit.i, label %23, !llvm.loop !21

.loopexit.i:                                      ; preds = %32, %19
  %.1.i = phi i32 [ %.02637.i, %19 ], [ %.3.i, %32 ]
  %35 = icmp sgt i64 %indvars.iv.i, 1
  br i1 %35, label %19, label %._crit_edge.i, !llvm.loop !22

._crit_edge.i:                                    ; preds = %.loopexit.i
  %36 = icmp sgt i32 %.1.i, 0
  br i1 %36, label %37, label %._crit_edge.thread.i

37:                                               ; preds = %._crit_edge.i
  %38 = load i32, ptr %9, align 4, !tbaa !16
  %39 = icmp sgt i32 %38, 661
  br i1 %39, label %BN_GF2m_poly2arr.exit.thread, label %._crit_edge.thread.i

._crit_edge.thread.i:                             ; preds = %37, %._crit_edge.i, %13
  %.026.lcssa42.i = phi i32 [ %.1.i, %37 ], [ %.1.i, %._crit_edge.i ], [ 0, %13 ]
  %.not23 = icmp sgt i32 %.026.lcssa42.i, %5
  br i1 %.not23, label %BN_GF2m_poly2arr.exit.thread24, label %BN_GF2m_poly2arr.exit

BN_GF2m_poly2arr.exit.thread24:                   ; preds = %._crit_edge.thread.i
  %40 = add nsw i32 %.026.lcssa42.i, 1
  br label %BN_GF2m_poly2arr.exit.thread

BN_GF2m_poly2arr.exit:                            ; preds = %._crit_edge.thread.i
  %41 = sext i32 %.026.lcssa42.i to i64
  %42 = getelementptr inbounds i32, ptr %9, i64 %41
  store i32 -1, ptr %42, align 4, !tbaa !16
  %43 = add nsw i32 %.026.lcssa42.i, 1
  %.not = icmp eq i32 %43, 0
  br i1 %.not, label %BN_GF2m_poly2arr.exit.thread, label %44

BN_GF2m_poly2arr.exit.thread:                     ; preds = %BN_GF2m_poly2arr.exit.thread24, %37, %11, %BN_GF2m_poly2arr.exit
  %.029.i21 = phi i32 [ %43, %BN_GF2m_poly2arr.exit ], [ 0, %11 ], [ 0, %37 ], [ %40, %BN_GF2m_poly2arr.exit.thread24 ]
  tail call void @ERR_new() #5
  tail call void @ERR_set_debug(ptr noundef nonnull @.str, i32 noundef 542, ptr noundef nonnull @__func__.BN_GF2m_mod_sqr) #5
  tail call void (i32, i32, ptr, ...) @ERR_set_error(i32 noundef 3, i32 noundef 106, ptr noundef null) #5
  br label %46

44:                                               ; preds = %BN_GF2m_poly2arr.exit
  %45 = tail call i32 @BN_GF2m_mod_sqr_arr(ptr noundef %0, ptr noundef %1, ptr noundef nonnull %9, ptr noundef %3)
  br label %46

46:                                               ; preds = %44, %BN_GF2m_poly2arr.exit.thread
  %.015 = phi i32 [ %.029.i21, %BN_GF2m_poly2arr.exit.thread ], [ %45, %44 ]
  tail call void @CRYPTO_free(ptr noundef nonnull %9, ptr noundef nonnull @.str, i32 noundef 548) #5
  br label %47

47:                                               ; preds = %4, %46
  %.0 = phi i32 [ %.015, %46 ], [ 0, %4 ]
  ret i32 %.0
}